	.cpu cortex-m4
	.eabi_attribute 20, 1
	.eabi_attribute 21, 1
	.eabi_attribute 23, 3
	.eabi_attribute 24, 1
	.eabi_attribute 25, 1
	.eabi_attribute 26, 1
	.eabi_attribute 30, 6
	.eabi_attribute 34, 1
	.eabi_attribute 18, 4
	.file	"bsp_driver_sd.c"
	.text
.Ltext0:
	.section	.text.BSP_SD_Init,"ax",%progbits
	.align	1
	.global	BSP_SD_Init
	.syntax unified
	.thumb
	.thumb_func
	.fpu softvfp
	.type	BSP_SD_Init, %function
BSP_SD_Init:
.LFB125:
	.file 1 "C:\\Users\\Aymar\\Desktop\\MSG\\msg-obc-software\\obc\\upsat-obc-software-master\\cubeMX\\disco\\Src\\bsp_driver_sd.c"
	.loc 1 49 1
	@ args = 0, pretend = 0, frame = 8
	@ frame_needed = 0, uses_anonymous_args = 0
	push	{lr}
.LCFI0:
	sub	sp, sp, #12
.LCFI1:
	.loc 1 50 11
	movs	r3, #0
	strb	r3, [sp, #7]
	.loc 1 52 7
	bl	BSP_SD_IsDetected
	mov	r3, r0
	.loc 1 52 6
	cmp	r3, #1
	beq	.L2
	.loc 1 54 12
	movs	r3, #1
	b	.L3
.L2:
	.loc 1 56 14
	ldr	r1, .L6
	ldr	r0, .L6+4
	bl	HAL_SD_Init
	mov	r3, r0
	strb	r3, [sp, #7]
	.loc 1 58 6
	ldrb	r3, [sp, #7]	@ zero_extendqisi2
	cmp	r3, #0
	bne	.L4
	.loc 1 60 9
	mov	r1, #2048
	ldr	r0, .L6+4
	bl	HAL_SD_WideBusOperation_Config
	mov	r3, r0
	.loc 1 60 8
	cmp	r3, #0
	beq	.L5
	.loc 1 62 16
	movs	r3, #1
	strb	r3, [sp, #7]
	b	.L4
.L5:
	.loc 1 66 16
	movs	r3, #0
	strb	r3, [sp, #7]
.L4:
	.loc 1 70 10
	ldrb	r3, [sp, #7]	@ zero_extendqisi2
.L3:
	.loc 1 71 1
	mov	r0, r3
	add	sp, sp, #12
.LCFI2:
	@ sp needed
	ldr	pc, [sp], #4
.L7:
	.align	2
.L6:
	.word	SDCardInfo
	.word	hsd
.LFE125:
	.size	BSP_SD_Init, .-BSP_SD_Init
	.section	.text.BSP_SD_ITConfig,"ax",%progbits
	.align	1
	.global	BSP_SD_ITConfig
	.syntax unified
	.thumb
	.thumb_func
	.fpu softvfp
	.type	BSP_SD_ITConfig, %function
BSP_SD_ITConfig:
.LFB126:
	.loc 1 79 1
	@ args = 0, pretend = 0, frame = 0
	@ frame_needed = 0, uses_anonymous_args = 0
	@ link register save eliminated.
	.loc 1 82 10
	movs	r3, #0
	.loc 1 83 1
	mov	r0, r3
	bx	lr
.LFE126:
	.size	BSP_SD_ITConfig, .-BSP_SD_ITConfig
	.section	.text.BSP_SD_DetectIT,"ax",%progbits
	.align	1
	.global	BSP_SD_DetectIT
	.syntax unified
	.thumb
	.thumb_func
	.fpu softvfp
	.type	BSP_SD_DetectIT, %function
BSP_SD_DetectIT:
.LFB127:
	.loc 1 90 1
	@ args = 0, pretend = 0, frame = 0
	@ frame_needed = 0, uses_anonymous_args = 0
	@ link register save eliminated.
	.loc 1 92 1
	nop
	bx	lr
.LFE127:
	.size	BSP_SD_DetectIT, .-BSP_SD_DetectIT
	.section	.text.BSP_SD_DetectCallback,"ax",%progbits
	.align	1
	.weak	BSP_SD_DetectCallback
	.syntax unified
	.thumb
	.thumb_func
	.fpu softvfp
	.type	BSP_SD_DetectCallback, %function
BSP_SD_DetectCallback:
.LFB128:
	.loc 1 99 1
	@ args = 0, pretend = 0, frame = 0
	@ frame_needed = 0, uses_anonymous_args = 0
	@ link register save eliminated.
	.loc 1 104 1
	nop
	bx	lr
.LFE128:
	.size	BSP_SD_DetectCallback, .-BSP_SD_DetectCallback
	.section	.text.BSP_SD_ReadBlocks,"ax",%progbits
	.align	1
	.global	BSP_SD_ReadBlocks
	.syntax unified
	.thumb
	.thumb_func
	.fpu softvfp
	.type	BSP_SD_ReadBlocks, %function
BSP_SD_ReadBlocks:
.LFB129:
	.loc 1 115 1
	@ args = 8, pretend = 0, frame = 16
	@ frame_needed = 0, uses_anonymous_args = 0
	push	{lr}
.LCFI3:
	sub	sp, sp, #28
.LCFI4:
	str	r0, [sp, #20]
	strd	r2, [sp, #8]
	.loc 1 116 6
	ldr	r3, [sp, #36]
	str	r3, [sp, #4]
	ldr	r3, [sp, #32]
	str	r3, [sp]
	ldrd	r2, [sp, #8]
	ldr	r1, [sp, #20]
	ldr	r0, .L15
	bl	HAL_SD_ReadBlocks
	mov	r3, r0
	.loc 1 116 5
	cmp	r3, #0
	beq	.L13
	.loc 1 118 12
	movs	r3, #1
	b	.L14
.L13:
	.loc 1 122 12
	movs	r3, #0
.L14:
	.loc 1 124 1
	mov	r0, r3
	add	sp, sp, #28
.LCFI5:
	@ sp needed
	ldr	pc, [sp], #4
.L16:
	.align	2
.L15:
	.word	hsd
.LFE129:
	.size	BSP_SD_ReadBlocks, .-BSP_SD_ReadBlocks
	.section	.text.BSP_SD_WriteBlocks,"ax",%progbits
	.align	1
	.global	BSP_SD_WriteBlocks
	.syntax unified
	.thumb
	.thumb_func
	.fpu softvfp
	.type	BSP_SD_WriteBlocks, %function
BSP_SD_WriteBlocks:
.LFB130:
	.loc 1 135 1
	@ args = 8, pretend = 0, frame = 16
	@ frame_needed = 0, uses_anonymous_args = 0
	push	{lr}
.LCFI6:
	sub	sp, sp, #28
.LCFI7:
	str	r0, [sp, #20]
	strd	r2, [sp, #8]
	.loc 1 136 6
	ldr	r3, [sp, #36]
	str	r3, [sp, #4]
	ldr	r3, [sp, #32]
	str	r3, [sp]
	ldrd	r2, [sp, #8]
	ldr	r1, [sp, #20]
	ldr	r0, .L20
	bl	HAL_SD_WriteBlocks
	mov	r3, r0
	.loc 1 136 5
	cmp	r3, #0
	beq	.L18
	.loc 1 138 12
	movs	r3, #1
	b	.L19
.L18:
	.loc 1 142 12
	movs	r3, #0
.L19:
	.loc 1 144 1
	mov	r0, r3
	add	sp, sp, #28
.LCFI8:
	@ sp needed
	ldr	pc, [sp], #4
.L21:
	.align	2
.L20:
	.word	hsd
.LFE130:
	.size	BSP_SD_WriteBlocks, .-BSP_SD_WriteBlocks
	.section	.text.BSP_SD_ReadBlocks_DMA,"ax",%progbits
	.align	1
	.global	BSP_SD_ReadBlocks_DMA
	.syntax unified
	.thumb
	.thumb_func
	.fpu softvfp
	.type	BSP_SD_ReadBlocks_DMA, %function
BSP_SD_ReadBlocks_DMA:
.LFB131:
	.loc 1 155 1
	@ args = 8, pretend = 0, frame = 24
	@ frame_needed = 0, uses_anonymous_args = 0
	push	{lr}
.LCFI9:
	sub	sp, sp, #36
.LCFI10:
	str	r0, [sp, #20]
	strd	r2, [sp, #8]
	.loc 1 156 11
	movs	r3, #0
	strb	r3, [sp, #31]
	.loc 1 159 6
	ldr	r3, [sp, #44]
	str	r3, [sp, #4]
	ldr	r3, [sp, #40]
	str	r3, [sp]
	ldrd	r2, [sp, #8]
	ldr	r1, [sp, #20]
	ldr	r0, .L27
	bl	HAL_SD_ReadBlocks_DMA
	mov	r3, r0
	.loc 1 159 5
	cmp	r3, #0
	beq	.L23
	.loc 1 161 14
	movs	r3, #1
	strb	r3, [sp, #31]
.L23:
	.loc 1 165 5
	ldrb	r3, [sp, #31]	@ zero_extendqisi2
	cmp	r3, #0
	bne	.L24
	.loc 1 167 8
	ldr	r1, .L27+4
	ldr	r0, .L27
	bl	HAL_SD_CheckReadOperation
	mov	r3, r0
	.loc 1 167 7
	cmp	r3, #0
	beq	.L25
	.loc 1 169 16
	movs	r3, #1
	strb	r3, [sp, #31]
	b	.L24
.L25:
	.loc 1 173 16
	movs	r3, #0
	strb	r3, [sp, #31]
.L24:
	.loc 1 177 10
	ldrb	r3, [sp, #31]	@ zero_extendqisi2
	.loc 1 178 1
	mov	r0, r3
	add	sp, sp, #36
.LCFI11:
	@ sp needed
	ldr	pc, [sp], #4
.L28:
	.align	2
.L27:
	.word	hsd
	.word	100000000
.LFE131:
	.size	BSP_SD_ReadBlocks_DMA, .-BSP_SD_ReadBlocks_DMA
	.section	.text.BSP_SD_WriteBlocks_DMA,"ax",%progbits
	.align	1
	.global	BSP_SD_WriteBlocks_DMA
	.syntax unified
	.thumb
	.thumb_func
	.fpu softvfp
	.type	BSP_SD_WriteBlocks_DMA, %function
BSP_SD_WriteBlocks_DMA:
.LFB132:
	.loc 1 189 1
	@ args = 8, pretend = 0, frame = 24
	@ frame_needed = 0, uses_anonymous_args = 0
	push	{lr}
.LCFI12:
	sub	sp, sp, #36
.LCFI13:
	str	r0, [sp, #20]
	strd	r2, [sp, #8]
	.loc 1 190 11
	movs	r3, #0
	strb	r3, [sp, #31]
	.loc 1 193 6
	ldr	r3, [sp, #44]
	str	r3, [sp, #4]
	ldr	r3, [sp, #40]
	str	r3, [sp]
	ldrd	r2, [sp, #8]
	ldr	r1, [sp, #20]
	ldr	r0, .L34
	bl	HAL_SD_WriteBlocks_DMA
	mov	r3, r0
	.loc 1 193 5
	cmp	r3, #0
	beq	.L30
	.loc 1 195 14
	movs	r3, #1
	strb	r3, [sp, #31]
.L30:
	.loc 1 199 5
	ldrb	r3, [sp, #31]	@ zero_extendqisi2
	cmp	r3, #0
	bne	.L31
	.loc 1 201 8
	ldr	r1, .L34+4
	ldr	r0, .L34
	bl	HAL_SD_CheckWriteOperation
	mov	r3, r0
	.loc 1 201 7
	cmp	r3, #0
	beq	.L32
	.loc 1 203 16
	movs	r3, #1
	strb	r3, [sp, #31]
	b	.L31
.L32:
	.loc 1 207 16
	movs	r3, #0
	strb	r3, [sp, #31]
.L31:
	.loc 1 211 10
	ldrb	r3, [sp, #31]	@ zero_extendqisi2
	.loc 1 212 1
	mov	r0, r3
	add	sp, sp, #36
.LCFI14:
	@ sp needed
	ldr	pc, [sp], #4
.L35:
	.align	2
.L34:
	.word	hsd
	.word	100000000
.LFE132:
	.size	BSP_SD_WriteBlocks_DMA, .-BSP_SD_WriteBlocks_DMA
	.section	.text.BSP_SD_Erase,"ax",%progbits
	.align	1
	.global	BSP_SD_Erase
	.syntax unified
	.thumb
	.thumb_func
	.fpu softvfp
	.type	BSP_SD_Erase, %function
BSP_SD_Erase:
.LFB133:
	.loc 1 221 1
	@ args = 0, pretend = 0, frame = 16
	@ frame_needed = 0, uses_anonymous_args = 0
	push	{r4, lr}
.LCFI15:
	sub	sp, sp, #24
.LCFI16:
	strd	r0, [sp, #16]
	strd	r2, [sp, #8]
	.loc 1 222 6
	ldrd	r3, [sp, #8]
	strd	r3, [sp]
	ldrd	r2, [sp, #16]
	ldr	r0, .L39
	bl	HAL_SD_Erase
	mov	r3, r0
	.loc 1 222 5
	cmp	r3, #0
	beq	.L37
	.loc 1 224 12
	movs	r3, #1
	b	.L38
.L37:
	.loc 1 228 12
	movs	r3, #0
.L38:
	.loc 1 230 1
	mov	r0, r3
	add	sp, sp, #24
.LCFI17:
	@ sp needed
	pop	{r4, pc}
.L40:
	.align	2
.L39:
	.word	hsd
.LFE133:
	.size	BSP_SD_Erase, .-BSP_SD_Erase
	.section	.text.BSP_SD_IRQHandler,"ax",%progbits
	.align	1
	.global	BSP_SD_IRQHandler
	.syntax unified
	.thumb
	.thumb_func
	.fpu softvfp
	.type	BSP_SD_IRQHandler, %function
BSP_SD_IRQHandler:
.LFB134:
	.loc 1 238 1
	@ args = 0, pretend = 0, frame = 0
	@ frame_needed = 0, uses_anonymous_args = 0
	push	{r3, lr}
.LCFI18:
	.loc 1 239 3
	ldr	r0, .L42
	bl	HAL_SD_IRQHandler
	.loc 1 240 1
	nop
	pop	{r3, pc}
.L43:
	.align	2
.L42:
	.word	hsd
.LFE134:
	.size	BSP_SD_IRQHandler, .-BSP_SD_IRQHandler
	.section	.text.BSP_SD_DMA_Tx_IRQHandler,"ax",%progbits
	.align	1
	.global	BSP_SD_DMA_Tx_IRQHandler
	.syntax unified
	.thumb
	.thumb_func
	.fpu softvfp
	.type	BSP_SD_DMA_Tx_IRQHandler, %function
BSP_SD_DMA_Tx_IRQHandler:
.LFB135:
	.loc 1 248 1
	@ args = 0, pretend = 0, frame = 0
	@ frame_needed = 0, uses_anonymous_args = 0
	push	{r3, lr}
.LCFI19:
	.loc 1 249 3
	ldr	r3, .L45
	ldr	r3, [r3, #92]
	mov	r0, r3
	bl	HAL_DMA_IRQHandler
	.loc 1 250 1
	nop
	pop	{r3, pc}
.L46:
	.align	2
.L45:
	.word	hsd
.LFE135:
	.size	BSP_SD_DMA_Tx_IRQHandler, .-BSP_SD_DMA_Tx_IRQHandler
	.section	.text.BSP_SD_DMA_Rx_IRQHandler,"ax",%progbits
	.align	1
	.global	BSP_SD_DMA_Rx_IRQHandler
	.syntax unified
	.thumb
	.thumb_func
	.fpu softvfp
	.type	BSP_SD_DMA_Rx_IRQHandler, %function
BSP_SD_DMA_Rx_IRQHandler:
.LFB136:
	.loc 1 258 1
	@ args = 0, pretend = 0, frame = 0
	@ frame_needed = 0, uses_anonymous_args = 0
	push	{r3, lr}
.LCFI20:
	.loc 1 259 3
	ldr	r3, .L48
	ldr	r3, [r3, #88]
	mov	r0, r3
	bl	HAL_DMA_IRQHandler
	.loc 1 260 1
	nop
	pop	{r3, pc}
.L49:
	.align	2
.L48:
	.word	hsd
.LFE136:
	.size	BSP_SD_DMA_Rx_IRQHandler, .-BSP_SD_DMA_Rx_IRQHandler
	.section	.text.BSP_SD_GetStatus,"ax",%progbits
	.align	1
	.global	BSP_SD_GetStatus
	.syntax unified
	.thumb
	.thumb_func
	.fpu softvfp
	.type	BSP_SD_GetStatus, %function
BSP_SD_GetStatus:
.LFB137:
	.loc 1 272 1
	@ args = 0, pretend = 0, frame = 0
	@ frame_needed = 0, uses_anonymous_args = 0
	push	{r3, lr}
.LCFI21:
	.loc 1 273 10
	ldr	r0, .L52
	bl	HAL_SD_GetStatus
	mov	r3, r0
	.loc 1 274 1
	mov	r0, r3
	pop	{r3, pc}
.L53:
	.align	2
.L52:
	.word	hsd
.LFE137:
	.size	BSP_SD_GetStatus, .-BSP_SD_GetStatus
	.section	.text.BSP_SD_GetCardInfo,"ax",%progbits
	.align	1
	.global	BSP_SD_GetCardInfo
	.syntax unified
	.thumb
	.thumb_func
	.fpu softvfp
	.type	BSP_SD_GetCardInfo, %function
BSP_SD_GetCardInfo:
.LFB138:
	.loc 1 282 1
	@ args = 0, pretend = 0, frame = 8
	@ frame_needed = 0, uses_anonymous_args = 0
	push	{lr}
.LCFI22:
	sub	sp, sp, #12
.LCFI23:
	str	r0, [sp, #4]
	.loc 1 284 3
	ldr	r1, [sp, #4]
	ldr	r0, .L55
	bl	HAL_SD_Get_CardInfo
	.loc 1 285 1
	nop
	add	sp, sp, #12
.LCFI24:
	@ sp needed
	ldr	pc, [sp], #4
.L56:
	.align	2
.L55:
	.word	hsd
.LFE138:
	.size	BSP_SD_GetCardInfo, .-BSP_SD_GetCardInfo
	.section	.text.BSP_SD_IsDetected,"ax",%progbits
	.align	1
	.global	BSP_SD_IsDetected
	.syntax unified
	.thumb
	.thumb_func
	.fpu softvfp
	.type	BSP_SD_IsDetected, %function
BSP_SD_IsDetected:
.LFB139:
	.loc 1 294 1
	@ args = 0, pretend = 0, frame = 8
	@ frame_needed = 0, uses_anonymous_args = 0
	@ link register save eliminated.
	sub	sp, sp, #8
.LCFI25:
	.loc 1 295 16
	movs	r3, #1
	strb	r3, [sp, #7]
	.loc 1 301 10
	ldrb	r3, [sp, #7]
	uxtb	r3, r3
	.loc 1 302 1
	mov	r0, r3
	add	sp, sp, #8
.LCFI26:
	@ sp needed
	bx	lr
.LFE139:
	.size	BSP_SD_IsDetected, .-BSP_SD_IsDetected
	.section	.debug_frame,"",%progbits
.Lframe0:
	.4byte	.LECIE0-.LSCIE0
.LSCIE0:
	.4byte	0xffffffff
	.byte	0x3
	.ascii	"\000"
	.uleb128 0x1
	.sleb128 -4
	.uleb128 0xe
	.byte	0xc
	.uleb128 0xd
	.uleb128 0
	.align	2
.LECIE0:
.LSFDE0:
	.4byte	.LEFDE0-.LASFDE0
.LASFDE0:
	.4byte	.Lframe0
	.4byte	.LFB125
	.4byte	.LFE125-.LFB125
	.byte	0x4
	.4byte	.LCFI0-.LFB125
	.byte	0xe
	.uleb128 0x4
	.byte	0x8e
	.uleb128 0x1
	.byte	0x4
	.4byte	.LCFI1-.LCFI0
	.byte	0xe
	.uleb128 0x10
	.byte	0x4
	.4byte	.LCFI2-.LCFI1
	.byte	0xe
	.uleb128 0x4
	.align	2
.LEFDE0:
.LSFDE2:
	.4byte	.LEFDE2-.LASFDE2
.LASFDE2:
	.4byte	.Lframe0
	.4byte	.LFB126
	.4byte	.LFE126-.LFB126
	.align	2
.LEFDE2:
.LSFDE4:
	.4byte	.LEFDE4-.LASFDE4
.LASFDE4:
	.4byte	.Lframe0
	.4byte	.LFB127
	.4byte	.LFE127-.LFB127
	.align	2
.LEFDE4:
.LSFDE6:
	.4byte	.LEFDE6-.LASFDE6
.LASFDE6:
	.4byte	.Lframe0
	.4byte	.LFB128
	.4byte	.LFE128-.LFB128
	.align	2
.LEFDE6:
.LSFDE8:
	.4byte	.LEFDE8-.LASFDE8
.LASFDE8:
	.4byte	.Lframe0
	.4byte	.LFB129
	.4byte	.LFE129-.LFB129
	.byte	0x4
	.4byte	.LCFI3-.LFB129
	.byte	0xe
	.uleb128 0x4
	.byte	0x8e
	.uleb128 0x1
	.byte	0x4
	.4byte	.LCFI4-.LCFI3
	.byte	0xe
	.uleb128 0x20
	.byte	0x4
	.4byte	.LCFI5-.LCFI4
	.byte	0xe
	.uleb128 0x4
	.align	2
.LEFDE8:
.LSFDE10:
	.4byte	.LEFDE10-.LASFDE10
.LASFDE10:
	.4byte	.Lframe0
	.4byte	.LFB130
	.4byte	.LFE130-.LFB130
	.byte	0x4
	.4byte	.LCFI6-.LFB130
	.byte	0xe
	.uleb128 0x4
	.byte	0x8e
	.uleb128 0x1
	.byte	0x4
	.4byte	.LCFI7-.LCFI6
	.byte	0xe
	.uleb128 0x20
	.byte	0x4
	.4byte	.LCFI8-.LCFI7
	.byte	0xe
	.uleb128 0x4
	.align	2
.LEFDE10:
.LSFDE12:
	.4byte	.LEFDE12-.LASFDE12
.LASFDE12:
	.4byte	.Lframe0
	.4byte	.LFB131
	.4byte	.LFE131-.LFB131
	.byte	0x4
	.4byte	.LCFI9-.LFB131
	.byte	0xe
	.uleb128 0x4
	.byte	0x8e
	.uleb128 0x1
	.byte	0x4
	.4byte	.LCFI10-.LCFI9
	.byte	0xe
	.uleb128 0x28
	.byte	0x4
	.4byte	.LCFI11-.LCFI10
	.byte	0xe
	.uleb128 0x4
	.align	2
.LEFDE12:
.LSFDE14:
	.4byte	.LEFDE14-.LASFDE14
.LASFDE14:
	.4byte	.Lframe0
	.4byte	.LFB132
	.4byte	.LFE132-.LFB132
	.byte	0x4
	.4byte	.LCFI12-.LFB132
	.byte	0xe
	.uleb128 0x4
	.byte	0x8e
	.uleb128 0x1
	.byte	0x4
	.4byte	.LCFI13-.LCFI12
	.byte	0xe
	.uleb128 0x28
	.byte	0x4
	.4byte	.LCFI14-.LCFI13
	.byte	0xe
	.uleb128 0x4
	.align	2
.LEFDE14:
.LSFDE16:
	.4byte	.LEFDE16-.LASFDE16
.LASFDE16:
	.4byte	.Lframe0
	.4byte	.LFB133
	.4byte	.LFE133-.LFB133
	.byte	0x4
	.4byte	.LCFI15-.LFB133
	.byte	0xe
	.uleb128 0x8
	.byte	0x84
	.uleb128 0x2
	.byte	0x8e
	.uleb128 0x1
	.byte	0x4
	.4byte	.LCFI16-.LCFI15
	.byte	0xe
	.uleb128 0x20
	.byte	0x4
	.4byte	.LCFI17-.LCFI16
	.byte	0xe
	.uleb128 0x8
	.align	2
.LEFDE16:
.LSFDE18:
	.4byte	.LEFDE18-.LASFDE18
.LASFDE18:
	.4byte	.Lframe0
	.4byte	.LFB134
	.4byte	.LFE134-.LFB134
	.byte	0x4
	.4byte	.LCFI18-.LFB134
	.byte	0xe
	.uleb128 0x8
	.byte	0x83
	.uleb128 0x2
	.byte	0x8e
	.uleb128 0x1
	.align	2
.LEFDE18:
.LSFDE20:
	.4byte	.LEFDE20-.LASFDE20
.LASFDE20:
	.4byte	.Lframe0
	.4byte	.LFB135
	.4byte	.LFE135-.LFB135
	.byte	0x4
	.4byte	.LCFI19-.LFB135
	.byte	0xe
	.uleb128 0x8
	.byte	0x83
	.uleb128 0x2
	.byte	0x8e
	.uleb128 0x1
	.align	2
.LEFDE20:
.LSFDE22:
	.4byte	.LEFDE22-.LASFDE22
.LASFDE22:
	.4byte	.Lframe0
	.4byte	.LFB136
	.4byte	.LFE136-.LFB136
	.byte	0x4
	.4byte	.LCFI20-.LFB136
	.byte	0xe
	.uleb128 0x8
	.byte	0x83
	.uleb128 0x2
	.byte	0x8e
	.uleb128 0x1
	.align	2
.LEFDE22:
.LSFDE24:
	.4byte	.LEFDE24-.LASFDE24
.LASFDE24:
	.4byte	.Lframe0
	.4byte	.LFB137
	.4byte	.LFE137-.LFB137
	.byte	0x4
	.4byte	.LCFI21-.LFB137
	.byte	0xe
	.uleb128 0x8
	.byte	0x83
	.uleb128 0x2
	.byte	0x8e
	.uleb128 0x1
	.align	2
.LEFDE24:
.LSFDE26:
	.4byte	.LEFDE26-.LASFDE26
.LASFDE26:
	.4byte	.Lframe0
	.4byte	.LFB138
	.4byte	.LFE138-.LFB138
	.byte	0x4
	.4byte	.LCFI22-.LFB138
	.byte	0xe
	.uleb128 0x4
	.byte	0x8e
	.uleb128 0x1
	.byte	0x4
	.4byte	.LCFI23-.LCFI22
	.byte	0xe
	.uleb128 0x10
	.byte	0x4
	.4byte	.LCFI24-.LCFI23
	.byte	0xe
	.uleb128 0x4
	.align	2
.LEFDE26:
.LSFDE28:
	.4byte	.LEFDE28-.LASFDE28
.LASFDE28:
	.4byte	.Lframe0
	.4byte	.LFB139
	.4byte	.LFE139-.LFB139
	.byte	0x4
	.4byte	.LCFI25-.LFB139
	.byte	0xe
	.uleb128 0x8
	.byte	0x4
	.4byte	.LCFI26-.LCFI25
	.byte	0xe
	.uleb128 0
	.align	2
.LEFDE28:
	.text
.Letext0:
	.file 2 "C:/Program Files/SEGGER/SEGGER Embedded Studio for ARM 4.18/include/stdint.h"
	.file 3 "./../Drivers/CMSIS/Include/core_cm4.h"
	.file 4 "./../Drivers/CMSIS/Device/ST/STM32F4xx/Include/system_stm32f4xx.h"
	.file 5 "./../Drivers/CMSIS/Device/ST/STM32F4xx/Include/stm32f405xx.h"
	.file 6 "C:/Program Files/SEGGER/SEGGER Embedded Studio for ARM 4.18/include/__crossworks.h"
	.file 7 "C:/Program Files/SEGGER/SEGGER Embedded Studio for ARM 4.18/include/stdio.h"
	.file 8 "./../Drivers/STM32F4xx_HAL_Driver/Inc/stm32f4xx_hal_def.h"
	.file 9 "./../Drivers/STM32F4xx_HAL_Driver/Inc/stm32f4xx_hal_dma.h"
	.file 10 "./../Drivers/STM32F4xx_HAL_Driver/Inc/stm32f4xx_ll_sdmmc.h"
	.file 11 "./../Drivers/STM32F4xx_HAL_Driver/Inc/stm32f4xx_hal_sd.h"